target datalayout = "e-m:e-p270:32:32-p271:32:32-p272:64:64-i64:64-i128:128-f80:128-n8:16:32:64-S128"
target triple = "x86_64-pc-linux-gnu"

%"class.std::__cxx11::basic_string" = type { %"struct.std::__cxx11::basic_string<char>::_Alloc_hider", i64, %union.anon }
%"struct.std::__cxx11::basic_string<char>::_Alloc_hider" = type { ptr }
%union.anon = type { i64, [8 x i8] }
%"class.grpc_core::(anonymous namespace)::JsonWriter" = type { i32, i32, i8, i8, %"class.std::__cxx11::basic_string" }

; Function Attrs: mustprogress nounwind uwtable
define linkonce_odr noundef ptr @_ZNSt19__ptr_traits_ptr_toIPKcS0_Lb0EE10pointer_toERS0_(ptr noundef nonnull align 1 dereferenceable(1) %0) #2 comdat align 2 {
  %2 = alloca ptr, align 8
  store ptr %0, ptr %2, align 8, !tbaa !29
  %3 = load ptr, ptr %2, align 8, !tbaa !29
  ret ptr %3
}

; Function Attrs: mustprogress nounwind uwtable
define available_externally noundef ptr @_ZNKSt7__cxx1112basic_stringIcSt11char_traitsIcESaIcEE13_M_local_dataEv(ptr noundef nonnull align 8 dereferenceable(32) %0) #2 align 2 {
  %2 = alloca ptr, align 8
  store ptr %0, ptr %2, align 8, !tbaa !22
  %3 = load ptr, ptr %2, align 8
  %4 = getelementptr inbounds nuw %"class.std::__cxx11::basic_string", ptr %3, i32 0, i32 2
  %5 = getelementptr inbounds [16 x i8], ptr %4, i64 0, i64 0
  %6 = call noundef ptr @_ZNSt19__ptr_traits_ptr_toIPKcS0_Lb0EE10pointer_toERS0_(ptr noundef nonnull align 1 dereferenceable(1) %5) #14
  ret ptr %6
}

; Function Attrs: mustprogress nounwind uwtable
define available_externally void @_ZNSt7__cxx1112basic_stringIcSt11char_traitsIcESaIcEE9_M_lengthEm(ptr noundef nonnull align 8 dereferenceable(32) %0, i64 noundef %1) #2 align 2 {
  %3 = alloca ptr, align 8
  %4 = alloca i64, align 8
  store ptr %0, ptr %3, align 8, !tbaa !22
  store i64 %1, ptr %4, align 8, !tbaa !31
  %5 = load ptr, ptr %3, align 8
  %6 = load i64, ptr %4, align 8, !tbaa !31
  %7 = getelementptr inbounds nuw %"class.std::__cxx11::basic_string", ptr %5, i32 0, i32 1
  store i64 %6, ptr %7, align 8, !tbaa !34
  ret void
}

; Function Attrs: noinline noreturn nounwind uwtable
define linkonce_odr hidden void @__clang_call_terminate(ptr noundef %0) #4 comdat {
  %2 = call ptr @__cxa_begin_catch(ptr %0) #14
  call void @_ZSt9terminatev() #16
  unreachable
}

; Function Attrs: mustprogress uwtable
define available_externally noundef zeroext i1 @_ZNKSt7__cxx1112basic_stringIcSt11char_traitsIcESaIcEE11_M_is_localEv(ptr noundef nonnull align 8 dereferenceable(32) %0) #0 align 2 {
  %2 = alloca i1, align 1
  %3 = alloca ptr, align 8
  store ptr %0, ptr %3, align 8, !tbaa !22
  %4 = load ptr, ptr %3, align 8
  %5 = call noundef ptr @_ZNKSt7__cxx1112basic_stringIcSt11char_traitsIcESaIcEE7_M_dataEv(ptr noundef nonnull align 8 dereferenceable(32) %4)
  %6 = call noundef ptr @_ZNKSt7__cxx1112basic_stringIcSt11char_traitsIcESaIcEE13_M_local_dataEv(ptr noundef nonnull align 8 dereferenceable(32) %4)
  %7 = icmp eq ptr %5, %6
  br i1 %7, label %8, label %14

8:                                                ; preds = %1
  %9 = getelementptr inbounds nuw %"class.std::__cxx11::basic_string", ptr %4, i32 0, i32 1
  %10 = load i64, ptr %9, align 8, !tbaa !34
  %11 = icmp ugt i64 %10, 15
  br i1 %11, label %12, label %13

12:                                               ; preds = %8
  unreachable

13:                                               ; preds = %8
  store i1 true, ptr %2, align 1
  br label %15

14:                                               ; preds = %1
  store i1 false, ptr %2, align 1
  br label %15

15:                                               ; preds = %14, %13
  %16 = load i1, ptr %2, align 1
  ret i1 %16
}

; Function Attrs: mustprogress uwtable
define available_externally void @_ZNSt7__cxx1112basic_stringIcSt11char_traitsIcESaIcEE13_M_set_lengthEm(ptr noundef nonnull align 8 dereferenceable(32) %0, i64 noundef %1) #0 align 2 {
  %3 = alloca ptr, align 8
  %4 = alloca i64, align 8
  %5 = alloca i8, align 1
  store ptr %0, ptr %3, align 8, !tbaa !22
  store i64 %1, ptr %4, align 8, !tbaa !31
  %6 = load ptr, ptr %3, align 8
  %7 = load i64, ptr %4, align 8, !tbaa !31
  call void @_ZNSt7__cxx1112basic_stringIcSt11char_traitsIcESaIcEE9_M_lengthEm(ptr noundef nonnull align 8 dereferenceable(32) %6, i64 noundef %7)
  %8 = call noundef ptr @_ZNKSt7__cxx1112basic_stringIcSt11char_traitsIcESaIcEE7_M_dataEv(ptr noundef nonnull align 8 dereferenceable(32) %6)
  %9 = load i64, ptr %4, align 8, !tbaa !31
  %10 = getelementptr inbounds nuw i8, ptr %8, i64 %9
  call void @llvm.lifetime.start.p0(i64 1, ptr %5) #14
  store i8 0, ptr %5, align 1, !tbaa !24
  call void @_ZNSt11char_traitsIcE6assignERcRKc(ptr noundef nonnull align 1 dereferenceable(1) %10, ptr noundef nonnull align 1 dereferenceable(1) %5) #14
  call void @llvm.lifetime.end.p0(i64 1, ptr %5) #14
  ret void
}

; Function Attrs: mustprogress nounwind uwtable
define linkonce_odr void @_ZNSt11char_traitsIcE6assignERcRKc(ptr noundef nonnull align 1 dereferenceable(1) %0, ptr noundef nonnull align 1 dereferenceable(1) %1) #2 comdat align 2 {
  %3 = alloca ptr, align 8
  %4 = alloca ptr, align 8
  store ptr %0, ptr %3, align 8, !tbaa !29
  store ptr %1, ptr %4, align 8, !tbaa !29
  %5 = load ptr, ptr %4, align 8, !tbaa !29
  %6 = load i8, ptr %5, align 1, !tbaa !24
  %7 = load ptr, ptr %3, align 8, !tbaa !29
  store i8 %6, ptr %7, align 1, !tbaa !24
  ret void
}

; Function Attrs: mustprogress nounwind uwtable
define available_externally noundef ptr @_ZNKSt7__cxx1112basic_stringIcSt11char_traitsIcESaIcEE7_M_dataEv(ptr noundef nonnull align 8 dereferenceable(32) %0) #2 align 2 {
  %2 = alloca ptr, align 8
  store ptr %0, ptr %2, align 8, !tbaa !22
  %3 = load ptr, ptr %2, align 8
  %4 = getelementptr inbounds nuw %"class.std::__cxx11::basic_string", ptr %3, i32 0, i32 0
  %5 = getelementptr inbounds nuw %"struct.std::__cxx11::basic_string<char>::_Alloc_hider", ptr %4, i32 0, i32 0
  %6 = load ptr, ptr %5, align 8, !tbaa !35
  ret ptr %6
}

; Function Attrs: mustprogress nounwind uwtable
define available_externally noundef i64 @_ZNKSt7__cxx1112basic_stringIcSt11char_traitsIcESaIcEE4sizeEv(ptr noundef nonnull align 8 dereferenceable(32) %0) #2 align 2 {
  %2 = alloca ptr, align 8
  store ptr %0, ptr %2, align 8, !tbaa !22
  %3 = load ptr, ptr %2, align 8
  %4 = getelementptr inbounds nuw %"class.std::__cxx11::basic_string", ptr %3, i32 0, i32 1
  %5 = load i64, ptr %4, align 8, !tbaa !34
  ret i64 %5
}

; Function Attrs: mustprogress nounwind uwtable
define available_externally noundef i64 @_ZNKSt7__cxx1112basic_stringIcSt11char_traitsIcESaIcEE8capacityEv(ptr noundef nonnull align 8 dereferenceable(32) %0) #2 align 2 personality ptr @__gxx_personality_v0 {
  %2 = alloca ptr, align 8
  store ptr %0, ptr %2, align 8, !tbaa !22
  %3 = load ptr, ptr %2, align 8
  %4 = invoke noundef zeroext i1 @_ZNKSt7__cxx1112basic_stringIcSt11char_traitsIcESaIcEE11_M_is_localEv(ptr noundef nonnull align 8 dereferenceable(32) %3)
          to label %5 unwind label %12

5:                                                ; preds = %1
  br i1 %4, label %6, label %7

6:                                                ; preds = %5
  br label %10

7:                                                ; preds = %5
  %8 = getelementptr inbounds nuw %"class.std::__cxx11::basic_string", ptr %3, i32 0, i32 2
  %9 = load i64, ptr %8, align 8, !tbaa !24
  br label %10

10:                                               ; preds = %7, %6
  %11 = phi i64 [ 15, %6 ], [ %9, %7 ]
  ret i64 %11

12:                                               ; preds = %1
  %13 = landingpad { ptr, i32 }
          catch ptr null
  %14 = extractvalue { ptr, i32 } %13, 0
  call void @__clang_call_terminate(ptr %14) #16
  unreachable
}

; Function Attrs: mustprogress uwtable
define available_externally void @_ZNSt7__cxx1112basic_stringIcSt11char_traitsIcESaIcEE9push_backEc(ptr noundef nonnull align 8 dereferenceable(32) %0, i8 noundef signext %1) #0 align 2 {
  %3 = alloca ptr, align 8
  %4 = alloca i8, align 1
  %5 = alloca i64, align 8
  store ptr %0, ptr %3, align 8, !tbaa !22
  store i8 %1, ptr %4, align 1, !tbaa !24
  %6 = load ptr, ptr %3, align 8
  call void @llvm.lifetime.start.p0(i64 8, ptr %5) #14
  %7 = call noundef i64 @_ZNKSt7__cxx1112basic_stringIcSt11char_traitsIcESaIcEE4sizeEv(ptr noundef nonnull align 8 dereferenceable(32) %6) #14
  store i64 %7, ptr %5, align 8, !tbaa !31
  %8 = load i64, ptr %5, align 8, !tbaa !31
  %9 = add i64 %8, 1
  %10 = call noundef i64 @_ZNKSt7__cxx1112basic_stringIcSt11char_traitsIcESaIcEE8capacityEv(ptr noundef nonnull align 8 dereferenceable(32) %6) #14
  %11 = icmp ugt i64 %9, %10
  br i1 %11, label %12, label %14

12:                                               ; preds = %2
  %13 = load i64, ptr %5, align 8, !tbaa !31
  call void @_ZNSt7__cxx1112basic_stringIcSt11char_traitsIcESaIcEE9_M_mutateEmmPKcm(ptr noundef nonnull align 8 dereferenceable(32) %6, i64 noundef %13, i64 noundef 0, ptr noundef null, i64 noundef 1)
  br label %14

14:                                               ; preds = %12, %2
  %15 = call noundef ptr @_ZNKSt7__cxx1112basic_stringIcSt11char_traitsIcESaIcEE7_M_dataEv(ptr noundef nonnull align 8 dereferenceable(32) %6)
  %16 = load i64, ptr %5, align 8, !tbaa !31
  %17 = getelementptr inbounds nuw i8, ptr %15, i64 %16
  call void @_ZNSt11char_traitsIcE6assignERcRKc(ptr noundef nonnull align 1 dereferenceable(1) %17, ptr noundef nonnull align 1 dereferenceable(1) %4) #14
  %18 = load i64, ptr %5, align 8, !tbaa !31
  %19 = add i64 %18, 1
  call void @_ZNSt7__cxx1112basic_stringIcSt11char_traitsIcESaIcEE13_M_set_lengthEm(ptr noundef nonnull align 8 dereferenceable(32) %6, i64 noundef %19)
  call void @llvm.lifetime.end.p0(i64 8, ptr %5) #14
  ret void
}

; Function Attrs: mustprogress uwtable
define internal void @_ZN9grpc_core12_GLOBAL__N_110JsonWriter11OutputCheckEm(ptr noundef nonnull align 8 dereferenceable(48) %0, i64 noundef %1) #0 align 2 {
  %3 = alloca ptr, align 8
  %4 = alloca i64, align 8
  %5 = alloca i64, align 8
  %6 = alloca i32, align 4
  store ptr %0, ptr %3, align 8, !tbaa !10
  store i64 %1, ptr %4, align 8, !tbaa !31
  %7 = load ptr, ptr %3, align 8
  call void @llvm.lifetime.start.p0(i64 8, ptr %5) #14
  %8 = getelementptr inbounds nuw %"class.grpc_core::(anonymous namespace)::JsonWriter", ptr %7, i32 0, i32 4
  %9 = call noundef i64 @_ZNKSt7__cxx1112basic_stringIcSt11char_traitsIcESaIcEE8capacityEv(ptr noundef nonnull align 8 dereferenceable(32) %8) #14
  %10 = getelementptr inbounds nuw %"class.grpc_core::(anonymous namespace)::JsonWriter", ptr %7, i32 0, i32 4
  %11 = call noundef i64 @_ZNKSt7__cxx1112basic_stringIcSt11char_traitsIcESaIcEE4sizeEv(ptr noundef nonnull align 8 dereferenceable(32) %10) #14
  %12 = sub i64 %9, %11
  store i64 %12, ptr %5, align 8, !tbaa !31
  %13 = load i64, ptr %5, align 8, !tbaa !31
  %14 = load i64, ptr %4, align 8, !tbaa !31
  %15 = icmp uge i64 %13, %14
  br i1 %15, label %16, label %17

16:                                               ; preds = %2
  store i32 1, ptr %6, align 4
  br label %29

17:                                               ; preds = %2
  %18 = load i64, ptr %5, align 8, !tbaa !31
  %19 = load i64, ptr %4, align 8, !tbaa !31
  %20 = sub i64 %19, %18
  store i64 %20, ptr %4, align 8, !tbaa !31
  %21 = load i64, ptr %4, align 8, !tbaa !31
  %22 = add i64 %21, 255
  %23 = and i64 %22, 4294967040
  store i64 %23, ptr %4, align 8, !tbaa !31
  %24 = getelementptr inbounds nuw %"class.grpc_core::(anonymous namespace)::JsonWriter", ptr %7, i32 0, i32 4
  %25 = getelementptr inbounds nuw %"class.grpc_core::(anonymous namespace)::JsonWriter", ptr %7, i32 0, i32 4
  %26 = call noundef i64 @_ZNKSt7__cxx1112basic_stringIcSt11char_traitsIcESaIcEE8capacityEv(ptr noundef nonnull align 8 dereferenceable(32) %25) #14
  %27 = load i64, ptr %4, align 8, !tbaa !31
  %28 = add i64 %26, %27
  call void @_ZNSt7__cxx1112basic_stringIcSt11char_traitsIcESaIcEE7reserveEm(ptr noundef nonnull align 8 dereferenceable(32) %24, i64 noundef %28)
  store i32 0, ptr %6, align 4
  br label %29

29:                                               ; preds = %17, %16
  call void @llvm.lifetime.end.p0(i64 8, ptr %5) #14
  %30 = load i32, ptr %6, align 4
  switch i32 %30, label %32 [
    i32 0, label %31
    i32 1, label %31
  ]

31:                                               ; preds = %29, %29
  ret void

32:                                               ; preds = %29
  unreachable
}

; Function Attrs: mustprogress uwtable
define internal void @_ZN9grpc_core12_GLOBAL__N_110JsonWriter10OutputCharEc(ptr noundef nonnull align 8 dereferenceable(48) %0, i8 noundef signext %1) #0 align 2 {
  %3 = alloca ptr, align 8
  %4 = alloca i8, align 1
  store ptr %0, ptr %3, align 8, !tbaa !10
  store i8 %1, ptr %4, align 1, !tbaa !24
  %5 = load ptr, ptr %3, align 8
  call void @_ZN9grpc_core12_GLOBAL__N_110JsonWriter11OutputCheckEm(ptr noundef nonnull align 8 dereferenceable(48) %5, i64 noundef 1)
  %6 = getelementptr inbounds nuw %"class.grpc_core::(anonymous namespace)::JsonWriter", ptr %5, i32 0, i32 4
  %7 = load i8, ptr %4, align 1, !tbaa !24
  call void @_ZNSt7__cxx1112basic_stringIcSt11char_traitsIcESaIcEE9push_backEc(ptr noundef nonnull align 8 dereferenceable(32) %6, i8 noundef signext %7)
  ret void
}

; Function Attrs: mustprogress uwtable
define internal void @_ZN9grpc_core12_GLOBAL__N_110JsonWriter13ContainerEndsENS_12experimental4Json4TypeE(ptr noundef nonnull align 8 dereferenceable(48) %0, i32 noundef %1) #0 align 2 {
  %3 = alloca ptr, align 8
  %4 = alloca i32, align 4
  store ptr %0, ptr %3, align 8, !tbaa !10
  store i32 %1, ptr %4, align 4, !tbaa !93
  %5 = load ptr, ptr %3, align 8
  %6 = getelementptr inbounds nuw %"class.grpc_core::(anonymous namespace)::JsonWriter", ptr %5, i32 0, i32 0
  %7 = load i32, ptr %6, align 8, !tbaa !12
  %8 = icmp ne i32 %7, 0
  br i1 %8, label %9, label %14

9:                                                ; preds = %2
  %10 = getelementptr inbounds nuw %"class.grpc_core::(anonymous namespace)::JsonWriter", ptr %5, i32 0, i32 2
  %11 = load i8, ptr %10, align 8, !tbaa !20, !range !42, !noundef !43
  %12 = trunc i8 %11 to i1
  br i1 %12, label %14, label %13

13:                                               ; preds = %9
  call void @_ZN9grpc_core12_GLOBAL__N_110JsonWriter10OutputCharEc(ptr noundef nonnull align 8 dereferenceable(48) %5, i8 noundef signext 10)
  br label %14

14:                                               ; preds = %13, %9, %2
  %15 = getelementptr inbounds nuw %"class.grpc_core::(anonymous namespace)::JsonWriter", ptr %5, i32 0, i32 1
  %16 = load i32, ptr %15, align 4, !tbaa !19
  %17 = add nsw i32 %16, -1
  store i32 %17, ptr %15, align 4, !tbaa !19
  %18 = getelementptr inbounds nuw %"class.grpc_core::(anonymous namespace)::JsonWriter", ptr %5, i32 0, i32 2
  %19 = load i8, ptr %18, align 8, !tbaa !20, !range !42, !noundef !43
  %20 = trunc i8 %19 to i1
  br i1 %20, label %22, label %21

21:                                               ; preds = %14
  call void @_ZN9grpc_core12_GLOBAL__N_110JsonWriter12OutputIndentEv(ptr noundef nonnull align 8 dereferenceable(48) %5)
  br label %22

22:                                               ; preds = %21, %14
  %23 = load i32, ptr %4, align 4, !tbaa !93
  %24 = icmp eq i32 %23, 4
  %25 = select i1 %24, i8 125, i8 93
  call void @_ZN9grpc_core12_GLOBAL__N_110JsonWriter10OutputCharEc(ptr noundef nonnull align 8 dereferenceable(48) %5, i8 noundef signext %25)
  %26 = getelementptr inbounds nuw %"class.grpc_core::(anonymous namespace)::JsonWriter", ptr %5, i32 0, i32 2
  store i8 0, ptr %26, align 8, !tbaa !20
  %27 = getelementptr inbounds nuw %"class.grpc_core::(anonymous namespace)::JsonWriter", ptr %5, i32 0, i32 3
  store i8 0, ptr %27, align 1, !tbaa !21
  ret void
}