; Function Attrs: mustprogress uwtable
define internal fastcc void @_ZN9grpc_core12_GLOBAL__N_110JsonWriter13ContainerEndsENS_12experimental4Json4TypeE(ptr noundef nonnull align 8 dereferenceable(48) %0, i32 noundef range(i32 4, 6) %1) unnamed_addr #0 align 2 personality ptr @__gxx_personality_v0 {
  %3 = load i32, ptr %0, align 8, !tbaa !6
  %.not = icmp eq i32 %3, 0
  br i1 %.not, label %33, label %4

4:                                                ; preds = %2
  %5 = getelementptr inbounds nuw i8, ptr %0, i64 8
  %6 = load i8, ptr %5, align 8, !tbaa !18, !range !38, !noundef !39
  %7 = trunc nuw i8 %6 to i1
  br i1 %7, label %33, label %8

8:                                                ; preds = %4
  %9 = getelementptr inbounds nuw i8, ptr %0, i64 16
  %10 = load ptr, ptr %9, align 8, !tbaa !23
  %11 = getelementptr inbounds nuw i8, ptr %0, i64 32
  %12 = icmp eq ptr %10, %11
  %13 = getelementptr inbounds nuw i8, ptr %0, i64 24
  %14 = load i64, ptr %13, align 8, !tbaa !21
  br i1 %12, label %_ZNKSt7__cxx1112basic_stringIcSt11char_traitsIcESaIcEE8capacityEv.exit.i.i, label %_ZNKSt7__cxx1112basic_stringIcSt11char_traitsIcESaIcEE8capacityEv.exit.i.thread.i

_ZNKSt7__cxx1112basic_stringIcSt11char_traitsIcESaIcEE8capacityEv.exit.i.i: ; preds = %8
  %15 = icmp ult i64 %14, 16
  tail call void @llvm.assume(i1 %15)
  %.not.i.i = icmp eq i64 %14, 15
  br i1 %.not.i.i, label %_ZNKSt7__cxx1112basic_stringIcSt11char_traitsIcESaIcEE8capacityEv.exit7.i.i, label %_ZN9grpc_core12_GLOBAL__N_110JsonWriter11OutputCheckEm.exit.i

_ZNKSt7__cxx1112basic_stringIcSt11char_traitsIcESaIcEE8capacityEv.exit.i.thread.i: ; preds = %8
  %16 = load i64, ptr %11, align 8
  %.not.i2.i = icmp eq i64 %16, %14
  br i1 %.not.i2.i, label %.thread.i, label %_ZN9grpc_core12_GLOBAL__N_110JsonWriter11OutputCheckEm.exit.i

.thread.i:                                        ; preds = %_ZNKSt7__cxx1112basic_stringIcSt11char_traitsIcESaIcEE8capacityEv.exit.i.thread.i
  %17 = add i64 %14, 256
  br label %_ZNKSt7__cxx1112basic_stringIcSt11char_traitsIcESaIcEE8capacityEv.exit7.i.i

_ZNKSt7__cxx1112basic_stringIcSt11char_traitsIcESaIcEE8capacityEv.exit7.i.i: ; preds = %.thread.i, %_ZNKSt7__cxx1112basic_stringIcSt11char_traitsIcESaIcEE8capacityEv.exit.i.i
  %18 = phi i64 [ %17, %.thread.i ], [ 271, %_ZNKSt7__cxx1112basic_stringIcSt11char_traitsIcESaIcEE8capacityEv.exit.i.i ]
  tail call void @_ZNSt7__cxx1112basic_stringIcSt11char_traitsIcESaIcEE7reserveEm(ptr noundef nonnull align 8 dereferenceable(32) %9, i64 noundef %18)
  %.pre.i = load i64, ptr %13, align 8, !tbaa !21
  %.pre3.i = load ptr, ptr %9, align 8, !tbaa !23
  br label %_ZN9grpc_core12_GLOBAL__N_110JsonWriter11OutputCheckEm.exit.i

_ZN9grpc_core12_GLOBAL__N_110JsonWriter11OutputCheckEm.exit.i: ; preds = %_ZNKSt7__cxx1112basic_stringIcSt11char_traitsIcESaIcEE8capacityEv.exit7.i.i, %_ZNKSt7__cxx1112basic_stringIcSt11char_traitsIcESaIcEE8capacityEv.exit.i.thread.i, %_ZNKSt7__cxx1112basic_stringIcSt11char_traitsIcESaIcEE8capacityEv.exit.i.i
  %19 = phi ptr [ %10, %_ZNKSt7__cxx1112basic_stringIcSt11char_traitsIcESaIcEE8capacityEv.exit.i.thread.i ], [ %10, %_ZNKSt7__cxx1112basic_stringIcSt11char_traitsIcESaIcEE8capacityEv.exit.i.i ], [ %.pre3.i, %_ZNKSt7__cxx1112basic_stringIcSt11char_traitsIcESaIcEE8capacityEv.exit7.i.i ]
  %20 = phi i64 [ %14, %_ZNKSt7__cxx1112basic_stringIcSt11char_traitsIcESaIcEE8capacityEv.exit.i.thread.i ], [ %14, %_ZNKSt7__cxx1112basic_stringIcSt11char_traitsIcESaIcEE8capacityEv.exit.i.i ], [ %.pre.i, %_ZNKSt7__cxx1112basic_stringIcSt11char_traitsIcESaIcEE8capacityEv.exit7.i.i ]
  %21 = add i64 %20, 1
  %22 = icmp eq ptr %19, %11
  br i1 %22, label %23, label %_ZNKSt7__cxx1112basic_stringIcSt11char_traitsIcESaIcEE8capacityEv.exit.i1.i

23:                                               ; preds = %_ZN9grpc_core12_GLOBAL__N_110JsonWriter11OutputCheckEm.exit.i
  %24 = icmp ult i64 %20, 16
  tail call void @llvm.assume(i1 %24)
  br label %_ZNKSt7__cxx1112basic_stringIcSt11char_traitsIcESaIcEE8capacityEv.exit.i1.i

_ZNKSt7__cxx1112basic_stringIcSt11char_traitsIcESaIcEE8capacityEv.exit.i1.i: ; preds = %23, %_ZN9grpc_core12_GLOBAL__N_110JsonWriter11OutputCheckEm.exit.i
  %25 = load i64, ptr %11, align 8
  %26 = select i1 %22, i64 15, i64 %25
  %27 = icmp ugt i64 %21, %26
  br i1 %27, label %28, label %_ZN9grpc_core12_GLOBAL__N_110JsonWriter10OutputCharEc.exit

28:                                               ; preds = %_ZNKSt7__cxx1112basic_stringIcSt11char_traitsIcESaIcEE8capacityEv.exit.i1.i
  tail call void @_ZNSt7__cxx1112basic_stringIcSt11char_traitsIcESaIcEE9_M_mutateEmmPKcm(ptr noundef nonnull align 8 dereferenceable(32) %9, i64 noundef %20, i64 noundef 0, ptr noundef null, i64 noundef 1)
  %.pre.i.i = load ptr, ptr %9, align 8, !tbaa !23
  br label %_ZN9grpc_core12_GLOBAL__N_110JsonWriter10OutputCharEc.exit

_ZN9grpc_core12_GLOBAL__N_110JsonWriter10OutputCharEc.exit: ; preds = %_ZNKSt7__cxx1112basic_stringIcSt11char_traitsIcESaIcEE8capacityEv.exit.i1.i, %28
  %29 = phi ptr [ %.pre.i.i, %28 ], [ %19, %_ZNKSt7__cxx1112basic_stringIcSt11char_traitsIcESaIcEE8capacityEv.exit.i1.i ]
  %30 = getelementptr inbounds nuw i8, ptr %29, i64 %20
  store i8 10, ptr %30, align 1, !tbaa !22
  store i64 %21, ptr %13, align 8, !tbaa !21
  %31 = load ptr, ptr %9, align 8, !tbaa !23
  %32 = getelementptr inbounds nuw i8, ptr %31, i64 %21
  store i8 0, ptr %32, align 1, !tbaa !22
  br label %33

33:                                               ; preds = %_ZN9grpc_core12_GLOBAL__N_110JsonWriter10OutputCharEc.exit, %4, %2
  %34 = getelementptr inbounds nuw i8, ptr %0, i64 4
  %35 = load i32, ptr %34, align 4, !tbaa !17
  %36 = add nsw i32 %35, -1
  store i32 %36, ptr %34, align 4, !tbaa !17
  %37 = getelementptr inbounds nuw i8, ptr %0, i64 8
  %38 = load i8, ptr %37, align 8, !tbaa !18, !range !38, !noundef !39
  %39 = trunc nuw i8 %38 to i1
  br i1 %39, label %41, label %40

40:                                               ; preds = %33
  tail call fastcc void @_ZN9grpc_core12_GLOBAL__N_110JsonWriter12OutputIndentEv(ptr noundef nonnull align 8 dereferenceable(48) %0)
  br label %41

41:                                               ; preds = %40, %33
  %42 = getelementptr inbounds nuw i8, ptr %0, i64 16
  %43 = load ptr, ptr %42, align 8, !tbaa !23
  %44 = getelementptr inbounds nuw i8, ptr %0, i64 32
  %45 = icmp eq ptr %43, %44
  %46 = getelementptr inbounds nuw i8, ptr %0, i64 24
  %47 = load i64, ptr %46, align 8, !tbaa !21
  br i1 %45, label %_ZNKSt7__cxx1112basic_stringIcSt11char_traitsIcESaIcEE8capacityEv.exit.i.i10, label %_ZNKSt7__cxx1112basic_stringIcSt11char_traitsIcESaIcEE8capacityEv.exit.i.thread.i1

_ZNKSt7__cxx1112basic_stringIcSt11char_traitsIcESaIcEE8capacityEv.exit.i.i10: ; preds = %41
  %48 = icmp ult i64 %47, 16
  tail call void @llvm.assume(i1 %48)
  %.not.i.i11 = icmp eq i64 %47, 15
  br i1 %.not.i.i11, label %_ZNKSt7__cxx1112basic_stringIcSt11char_traitsIcESaIcEE8capacityEv.exit7.i.i7, label %_ZN9grpc_core12_GLOBAL__N_110JsonWriter11OutputCheckEm.exit.i3

_ZNKSt7__cxx1112basic_stringIcSt11char_traitsIcESaIcEE8capacityEv.exit.i.thread.i1: ; preds = %41
  %49 = load i64, ptr %44, align 8
  %.not.i2.i2 = icmp eq i64 %49, %47
  br i1 %.not.i2.i2, label %.thread.i6, label %_ZN9grpc_core12_GLOBAL__N_110JsonWriter11OutputCheckEm.exit.i3

.thread.i6:                                       ; preds = %_ZNKSt7__cxx1112basic_stringIcSt11char_traitsIcESaIcEE8capacityEv.exit.i.thread.i1
  %50 = add i64 %47, 256
  br label %_ZNKSt7__cxx1112basic_stringIcSt11char_traitsIcESaIcEE8capacityEv.exit7.i.i7

_ZNKSt7__cxx1112basic_stringIcSt11char_traitsIcESaIcEE8capacityEv.exit7.i.i7: ; preds = %.thread.i6, %_ZNKSt7__cxx1112basic_stringIcSt11char_traitsIcESaIcEE8capacityEv.exit.i.i10
  %51 = phi i64 [ %50, %.thread.i6 ], [ 271, %_ZNKSt7__cxx1112basic_stringIcSt11char_traitsIcESaIcEE8capacityEv.exit.i.i10 ]
  tail call void @_ZNSt7__cxx1112basic_stringIcSt11char_traitsIcESaIcEE7reserveEm(ptr noundef nonnull align 8 dereferenceable(32) %42, i64 noundef %51)
  %.pre.i8 = load i64, ptr %46, align 8, !tbaa !21
  %.pre3.i9 = load ptr, ptr %42, align 8, !tbaa !23
  br label %_ZN9grpc_core12_GLOBAL__N_110JsonWriter11OutputCheckEm.exit.i3

_ZN9grpc_core12_GLOBAL__N_110JsonWriter11OutputCheckEm.exit.i3: ; preds = %_ZNKSt7__cxx1112basic_stringIcSt11char_traitsIcESaIcEE8capacityEv.exit7.i.i7, %_ZNKSt7__cxx1112basic_stringIcSt11char_traitsIcESaIcEE8capacityEv.exit.i.thread.i1, %_ZNKSt7__cxx1112basic_stringIcSt11char_traitsIcESaIcEE8capacityEv.exit.i.i10
  %52 = phi ptr [ %43, %_ZNKSt7__cxx1112basic_stringIcSt11char_traitsIcESaIcEE8capacityEv.exit.i.thread.i1 ], [ %43, %_ZNKSt7__cxx1112basic_stringIcSt11char_traitsIcESaIcEE8capacityEv.exit.i.i10 ], [ %.pre3.i9, %_ZNKSt7__cxx1112basic_stringIcSt11char_traitsIcESaIcEE8capacityEv.exit7.i.i7 ]
  %53 = phi i64 [ %47, %_ZNKSt7__cxx1112basic_stringIcSt11char_traitsIcESaIcEE8capacityEv.exit.i.thread.i1 ], [ %47, %_ZNKSt7__cxx1112basic_stringIcSt11char_traitsIcESaIcEE8capacityEv.exit.i.i10 ], [ %.pre.i8, %_ZNKSt7__cxx1112basic_stringIcSt11char_traitsIcESaIcEE8capacityEv.exit7.i.i7 ]
  %54 = add i64 %53, 1
  %55 = icmp eq ptr %52, %44
  br i1 %55, label %56, label %_ZNKSt7__cxx1112basic_stringIcSt11char_traitsIcESaIcEE8capacityEv.exit.i1.i4

56:                                               ; preds = %_ZN9grpc_core12_GLOBAL__N_110JsonWriter11OutputCheckEm.exit.i3
  %57 = icmp ult i64 %53, 16
  tail call void @llvm.assume(i1 %57)
  br label %_ZNKSt7__cxx1112basic_stringIcSt11char_traitsIcESaIcEE8capacityEv.exit.i1.i4

_ZNKSt7__cxx1112basic_stringIcSt11char_traitsIcESaIcEE8capacityEv.exit.i1.i4: ; preds = %56, %_ZN9grpc_core12_GLOBAL__N_110JsonWriter11OutputCheckEm.exit.i3
  %58 = load i64, ptr %44, align 8
  %59 = select i1 %55, i64 15, i64 %58
  %60 = icmp ugt i64 %54, %59
  br i1 %60, label %61, label %_ZN9grpc_core12_GLOBAL__N_110JsonWriter10OutputCharEc.exit12

61:                                               ; preds = %_ZNKSt7__cxx1112basic_stringIcSt11char_traitsIcESaIcEE8capacityEv.exit.i1.i4
  tail call void @_ZNSt7__cxx1112basic_stringIcSt11char_traitsIcESaIcEE9_M_mutateEmmPKcm(ptr noundef nonnull align 8 dereferenceable(32) %42, i64 noundef %53, i64 noundef 0, ptr noundef null, i64 noundef 1)
  %.pre.i.i5 = load ptr, ptr %42, align 8, !tbaa !23
  br label %_ZN9grpc_core12_GLOBAL__N_110JsonWriter10OutputCharEc.exit12

_ZN9grpc_core12_GLOBAL__N_110JsonWriter10OutputCharEc.exit12: ; preds = %_ZNKSt7__cxx1112basic_stringIcSt11char_traitsIcESaIcEE8capacityEv.exit.i1.i4, %61
  %62 = phi ptr [ %.pre.i.i5, %61 ], [ %52, %_ZNKSt7__cxx1112basic_stringIcSt11char_traitsIcESaIcEE8capacityEv.exit.i1.i4 ]
  %63 = icmp eq i32 %1, 4
  %64 = select i1 %63, i8 125, i8 93
  %65 = getelementptr inbounds nuw i8, ptr %62, i64 %53
  store i8 %64, ptr %65, align 1, !tbaa !22
  store i64 %54, ptr %46, align 8, !tbaa !21
  %66 = load ptr, ptr %42, align 8, !tbaa !23
  %67 = getelementptr inbounds nuw i8, ptr %66, i64 %54
  store i8 0, ptr %67, align 1, !tbaa !22
  store i8 0, ptr %37, align 8, !tbaa !18
  %68 = getelementptr inbounds nuw i8, ptr %0, i64 9
  store i8 0, ptr %68, align 1, !tbaa !19
  ret void
}